; Function Attrs: mustprogress uwtable
define hidden noundef i32 @_ZNK5arith6solver16propagation_modeEv(ptr noundef nonnull align 8 dereferenceable(1144) %this) local_unnamed_addr #3 align 2 {
entry:
  %m_num_conflicts = getelementptr inbounds i8, ptr %this, i64 496
  %0 = load i32, ptr %m_num_conflicts, align 8
  %call = tail call noundef nonnull align 8 dereferenceable(800) ptr @_ZNK3euf13th_euf_solver10get_configEv(ptr noundef nonnull align 8 dereferenceable(108) %this)
  %m_arith_propagation_threshold = getelementptr inbounds i8, ptr %call, i64 344
  %1 = load i32, ptr %m_arith_propagation_threshold, align 8
  %cmp = icmp ult i32 %0, %1
  br i1 %cmp, label %cond.true, label %cond.end

cond.true:                                        ; preds = %entry
  %call2 = tail call noundef nonnull align 8 dereferenceable(800) ptr @_ZNK3euf13th_euf_solver10get_configEv(ptr noundef nonnull align 8 dereferenceable(108) %this)
  %m_arith_bound_prop = getelementptr inbounds i8, ptr %call2, i64 268
  %2 = load i32, ptr %m_arith_bound_prop, align 4
  br label %cond.end

cond.end:                                         ; preds = %entry, %cond.true
  %cond = phi i32 [ %2, %cond.true ], [ 0, %entry ]
  ret i32 %cond
}